target datalayout = "e-m:e-p270:32:32-p271:32:32-p272:64:64-i64:64-i128:128-f80:128-n8:16:32:64-S128"
target triple = "x86_64-pc-linux-gnu"

%struct._GArray = type { ptr, i32 }

@stderr = external global ptr, align 8
@.str.128 = private unnamed_addr constant [65 x i8] c"tshark: The available capture file types for the \22-F\22 flag are:\0A\00", align 1
@.str.129 = private unnamed_addr constant [13 x i8] c"    %s - %s\0A\00", align 1

; Function Attrs: null_pointer_is_valid sspstrong uwtable
define internal void @list_capture_types() #0 {
  %1 = alloca ptr, align 8
  %2 = alloca i32, align 4
  %3 = alloca i32, align 4
  call void @llvm.lifetime.start.p0(i64 8, ptr %1) #19
  %4 = load ptr, ptr @stderr, align 8
  %5 = call i32 (ptr, i32, ptr, ...) @__fprintf_chk(ptr noundef %4, i32 noundef 2, ptr noundef @.str.128)
  %6 = call ptr @wtap_get_writable_file_types_subtypes(i32 noundef 0)
  store ptr %6, ptr %1, align 8
  call void @llvm.lifetime.start.p0(i64 4, ptr %2) #19
  store i32 0, ptr %2, align 4
  br label %7

7:                                                ; preds = %28, %0
  %8 = load i32, ptr %2, align 4
  %9 = load ptr, ptr %1, align 8
  %10 = getelementptr inbounds nuw %struct._GArray, ptr %9, i32 0, i32 1
  %11 = load i32, ptr %10, align 8
  %12 = icmp ult i32 %8, %11
  br i1 %12, label %14, label %13

13:                                               ; preds = %7
  call void @llvm.lifetime.end.p0(i64 4, ptr %2) #19
  br label %31

14:                                               ; preds = %7
  call void @llvm.lifetime.start.p0(i64 4, ptr %3) #19
  %15 = load ptr, ptr %1, align 8
  %16 = getelementptr inbounds nuw %struct._GArray, ptr %15, i32 0, i32 0
  %17 = load ptr, ptr %16, align 8
  %18 = load i32, ptr %2, align 4
  %19 = zext i32 %18 to i64
  %20 = getelementptr i32, ptr %17, i64 %19
  %21 = load i32, ptr %20, align 4
  store i32 %21, ptr %3, align 4
  %22 = load ptr, ptr @stderr, align 8
  %23 = load i32, ptr %3, align 4
  %24 = call ptr @wtap_file_type_subtype_name(i32 noundef %23)
  %25 = load i32, ptr %3, align 4
  %26 = call ptr @wtap_file_type_subtype_description(i32 noundef %25)
  %27 = call i32 (ptr, i32, ptr, ...) @__fprintf_chk(ptr noundef %22, i32 noundef 2, ptr noundef @.str.129, ptr noundef %24, ptr noundef %26)
  call void @llvm.lifetime.end.p0(i64 4, ptr %3) #19
  br label %28

28:                                               ; preds = %14
  %29 = load i32, ptr %2, align 4
  %30 = add i32 %29, 1
  store i32 %30, ptr %2, align 4
  br label %7, !llvm.loop !16

31:                                               ; preds = %13
  %32 = load ptr, ptr %1, align 8
  %33 = call ptr @g_array_free(ptr noundef %32, i32 noundef 1)
  call void @llvm.lifetime.end.p0(i64 8, ptr %1) #19
  ret void
}