; Function Attrs: null_pointer_is_valid sspstrong uwtable
define internal fastcc void @list_capture_types() unnamed_addr #0 {
  %1 = load ptr, ptr @stderr, align 8
  %2 = tail call i32 (ptr, i32, ptr, ...) @__fprintf_chk(ptr noundef %1, i32 noundef 2, ptr noundef nonnull @.str.128)
  %3 = tail call ptr @wtap_get_writable_file_types_subtypes(i32 noundef 0)
  %4 = getelementptr inbounds nuw i8, ptr %3, i64 8
  %5 = load i32, ptr %4, align 8
  %.not = icmp eq i32 %5, 0
  br i1 %.not, label %._crit_edge, label %.lr.ph

._crit_edge:                                      ; preds = %.lr.ph, %0
  %6 = tail call ptr @g_array_free(ptr noundef %3, i32 noundef 1)
  ret void

.lr.ph:                                           ; preds = %0, %.lr.ph
  %indvars.iv = phi i64 [ %indvars.iv.next, %.lr.ph ], [ 0, %0 ]
  %7 = load ptr, ptr %3, align 8
  %8 = getelementptr i32, ptr %7, i64 %indvars.iv
  %9 = load i32, ptr %8, align 4
  %10 = load ptr, ptr @stderr, align 8
  %11 = tail call ptr @wtap_file_type_subtype_name(i32 noundef %9)
  %12 = tail call ptr @wtap_file_type_subtype_description(i32 noundef %9)
  %13 = tail call i32 (ptr, i32, ptr, ...) @__fprintf_chk(ptr noundef %10, i32 noundef 2, ptr noundef nonnull @.str.129, ptr noundef %11, ptr noundef %12)
  %indvars.iv.next = add nuw nsw i64 %indvars.iv, 1
  %14 = load i32, ptr %4, align 8
  %15 = zext i32 %14 to i64
  %16 = icmp samesign ult i64 %indvars.iv.next, %15
  br i1 %16, label %.lr.ph, label %._crit_edge, !llvm.loop !16
}